target datalayout = "e-m:e-p270:32:32-p271:32:32-p272:64:64-i64:64-i128:128-f80:128-n8:16:32:64-S128"
target triple = "x86_64-pc-linux-gnu"

@.str.425 = private unnamed_addr constant [5 x i8] c"smpp\00", align 1
@proto_smpp = internal global i32 0, align 4
@smpp_handle = internal global ptr null, align 8
@.str.435 = private unnamed_addr constant [9 x i8] c"tcp.port\00", align 1
@.str.436 = private unnamed_addr constant [4 x i8] c"tcp\00", align 1
@.str.437 = private unnamed_addr constant [25 x i8] c"SMPP over TCP Heuristics\00", align 1
@.str.438 = private unnamed_addr constant [9 x i8] c"smpp_tcp\00", align 1
@.str.439 = private unnamed_addr constant [4 x i8] c"tls\00", align 1
@.str.440 = private unnamed_addr constant [25 x i8] c"SMPP over TLS Heuristics\00", align 1
@.str.441 = private unnamed_addr constant [9 x i8] c"smpp_tls\00", align 1
@.str.442 = private unnamed_addr constant [5 x i8] c"x.25\00", align 1
@.str.443 = private unnamed_addr constant [26 x i8] c"SMPP over X.25 Heuristics\00", align 1
@.str.444 = private unnamed_addr constant [9 x i8] c"smpp_x25\00", align 1
@.str.445 = private unnamed_addr constant [11 x i8] c"gsm_sms_ud\00", align 1
@gsm_sms_handle = internal global ptr null, align 8
@.str.446 = private unnamed_addr constant [29 x i8] c"%s:%u: failed assertion \22%s\22\00", align 1
@.str.447 = private unnamed_addr constant [30 x i8] c"epan/dissectors/packet-smpp.c\00", align 1
@.str.448 = private unnamed_addr constant [15 x i8] c"gsm_sms_handle\00", align 1
@.str.449 = private unnamed_addr constant [14 x i8] c"smpp_commands\00", align 1
@.str.450 = private unnamed_addr constant [17 x i8] c"SM_PP Operations\00", align 1
@.str.451 = private unnamed_addr constant [12 x i8] c"OSI layer 7\00", align 1
@exported_pdu_tap = internal global i32 -1, align 4

; Function Attrs: null_pointer_is_valid sspstrong uwtable
define hidden void @proto_reg_handoff_smpp() #0 {
  %1 = alloca ptr, align 8
  %2 = load ptr, ptr @smpp_handle, align 8
  call void @dissector_add_for_decode_as_with_preference(ptr noundef @.str.435, ptr noundef %2)
  %3 = load ptr, ptr @smpp_handle, align 8
  call void @ssl_dissector_add(i32 noundef 0, ptr noundef %3)
  %4 = load i32, ptr @proto_smpp, align 4
  call void @heur_dissector_add(ptr noundef @.str.436, ptr noundef @dissect_smpp_heur, ptr noundef @.str.437, ptr noundef @.str.438, i32 noundef %4, i32 noundef 1)
  %5 = load i32, ptr @proto_smpp, align 4
  call void @heur_dissector_add(ptr noundef @.str.439, ptr noundef @dissect_smpp_heur, ptr noundef @.str.440, ptr noundef @.str.441, i32 noundef %5, i32 noundef 1)
  %6 = load i32, ptr @proto_smpp, align 4
  call void @heur_dissector_add(ptr noundef @.str.442, ptr noundef @dissect_smpp_heur, ptr noundef @.str.443, ptr noundef @.str.444, i32 noundef %6, i32 noundef 1)
  %7 = load i32, ptr @proto_smpp, align 4
  %8 = call ptr @find_dissector_add_dependency(ptr noundef @.str.445, i32 noundef %7)
  store ptr %8, ptr @gsm_sms_handle, align 8
  %9 = load ptr, ptr @gsm_sms_handle, align 8
  %10 = icmp ne ptr %9, null
  br i1 %10, label %11, label %12

11:                                               ; preds = %0
  br label %14

12:                                               ; preds = %0
  call void (ptr, ...) @proto_report_dissector_bug(ptr noundef @.str.446, ptr noundef @.str.447, i32 noundef 3859, ptr noundef @.str.448) #11
  unreachable

13:                                               ; No predecessors!
  br label %14

14:                                               ; preds = %13, %11
  call void @llvm.lifetime.start.p0(i64 8, ptr %1) #10
  %15 = call ptr @stats_tree_register(ptr noundef @.str.425, ptr noundef @.str.449, ptr noundef @.str.450, i32 noundef 0, ptr noundef @smpp_stats_tree_per_packet, ptr noundef @smpp_stats_tree_init, ptr noundef null)
  store ptr %15, ptr %1, align 8
  %16 = load ptr, ptr %1, align 8
  call void @stats_tree_set_group(ptr noundef %16, i32 noundef 8)
  %17 = call i32 @find_tap_id(ptr noundef @.str.451)
  store i32 %17, ptr @exported_pdu_tap, align 4
  call void @llvm.lifetime.end.p0(i64 8, ptr %1) #10
  ret void
}