; Function Attrs: null_pointer_is_valid sspstrong uwtable
define hidden void @proto_reg_handoff_smpp() local_unnamed_addr #0 {
  %1 = load ptr, ptr @smpp_handle, align 8
  tail call void @dissector_add_for_decode_as_with_preference(ptr noundef nonnull @.str.435, ptr noundef %1)
  %2 = load ptr, ptr @smpp_handle, align 8
  tail call void @ssl_dissector_add(i32 noundef 0, ptr noundef %2)
  %3 = load i32, ptr @proto_smpp, align 4
  tail call void @heur_dissector_add(ptr noundef nonnull @.str.436, ptr noundef nonnull @dissect_smpp_heur, ptr noundef nonnull @.str.437, ptr noundef nonnull @.str.438, i32 noundef %3, i32 noundef 1)
  %4 = load i32, ptr @proto_smpp, align 4
  tail call void @heur_dissector_add(ptr noundef nonnull @.str.439, ptr noundef nonnull @dissect_smpp_heur, ptr noundef nonnull @.str.440, ptr noundef nonnull @.str.441, i32 noundef %4, i32 noundef 1)
  %5 = load i32, ptr @proto_smpp, align 4
  tail call void @heur_dissector_add(ptr noundef nonnull @.str.442, ptr noundef nonnull @dissect_smpp_heur, ptr noundef nonnull @.str.443, ptr noundef nonnull @.str.444, i32 noundef %5, i32 noundef 1)
  %6 = load i32, ptr @proto_smpp, align 4
  %7 = tail call ptr @find_dissector_add_dependency(ptr noundef nonnull @.str.445, i32 noundef %6)
  store ptr %7, ptr @gsm_sms_handle, align 8
  %.not = icmp eq ptr %7, null
  br i1 %.not, label %8, label %9

8:                                                ; preds = %0
  tail call void (ptr, ...) @proto_report_dissector_bug(ptr noundef nonnull @.str.446, ptr noundef nonnull @.str.447, i32 noundef 3859, ptr noundef nonnull @.str.448) #11
  unreachable

9:                                                ; preds = %0
  %10 = tail call ptr @stats_tree_register(ptr noundef nonnull @.str.425, ptr noundef nonnull @.str.449, ptr noundef nonnull @.str.450, i32 noundef 0, ptr noundef nonnull @smpp_stats_tree_per_packet, ptr noundef nonnull @smpp_stats_tree_init, ptr noundef null)
  tail call void @stats_tree_set_group(ptr noundef %10, i32 noundef 8)
  %11 = tail call i32 @find_tap_id(ptr noundef nonnull @.str.451)
  store i32 %11, ptr @exported_pdu_tap, align 4
  ret void
}